target datalayout = "e-m:e-p270:32:32-p271:32:32-p272:64:64-i64:64-i128:128-f80:128-n8:16:32:64-S128"
target triple = "x86_64-pc-linux-gnu"

%struct.strbuf = type { i64, i64, ptr }

@.str.1 = private unnamed_addr constant [31 x i8] c"Unable to create '%s.lock': %s\00", align 1
@.str.2 = private unnamed_addr constant [3 x i8] c"%s\00", align 1
@__const.hold_lock_file_for_update_timeout_mode.buf = private unnamed_addr constant %struct.strbuf { i64 0, i64 0, ptr @strbuf_slopbuf }, align 8
@.str.6 = private unnamed_addr constant [1 x i8] zeroinitializer, align 1
@git_gettext_enabled = external global i32, align 4
@lock_file_timeout.random_initialized = internal global i32 0, align 4

; Function Attrs: inlinehint nounwind uwtable
define internal ptr @_(ptr noundef %0) #2 {
  %2 = alloca ptr, align 8
  %3 = alloca ptr, align 8
  store ptr %0, ptr %3, align 8, !tbaa !4
  %4 = load ptr, ptr %3, align 8, !tbaa !4
  %5 = load i8, ptr %4, align 1, !tbaa !13
  %6 = icmp ne i8 %5, 0
  br i1 %6, label %8, label %7

7:                                                ; preds = %1
  store ptr @.str.6, ptr %2, align 8
  br label %16

8:                                                ; preds = %1
  %9 = load i32, ptr @git_gettext_enabled, align 4, !tbaa !9
  %10 = icmp ne i32 %9, 0
  br i1 %10, label %13, label %11

11:                                               ; preds = %8
  %12 = load ptr, ptr %3, align 8, !tbaa !4
  store ptr %12, ptr %2, align 8
  br label %16

13:                                               ; preds = %8
  %14 = load ptr, ptr %3, align 8, !tbaa !4
  %15 = call ptr @dcgettext(ptr noundef null, ptr noundef %14, i32 noundef 5) #10
  store ptr %15, ptr %2, align 8
  br label %16

16:                                               ; preds = %13, %11, %7
  %17 = load ptr, ptr %2, align 8
  ret ptr %17
}

; Function Attrs: inlinehint nounwind uwtable
define internal i32 @const_error() #2 {
  ret i32 -1
}

; Function Attrs: nounwind uwtable
define dso_local void @unable_to_lock_message(ptr noundef %0, i32 noundef %1, ptr noundef %2) #0 {
  %4 = alloca ptr, align 8
  %5 = alloca i32, align 4
  %6 = alloca ptr, align 8
  store ptr %0, ptr %4, align 8, !tbaa !4
  store i32 %1, ptr %5, align 4, !tbaa !9
  store ptr %2, ptr %6, align 8, !tbaa !11
  %7 = load i32, ptr %5, align 4, !tbaa !9
  %8 = icmp eq i32 %7, 17
  br i1 %8, label %9, label %16

9:                                                ; preds = %3
  %10 = load ptr, ptr %6, align 8, !tbaa !11
  %11 = call ptr @_(ptr noundef @.str)
  %12 = load ptr, ptr %4, align 8, !tbaa !4
  %13 = call ptr @absolute_path(ptr noundef %12)
  %14 = load i32, ptr %5, align 4, !tbaa !9
  %15 = call ptr @strerror(i32 noundef %14) #10
  call void (ptr, ptr, ...) @strbuf_addf(ptr noundef %10, ptr noundef %11, ptr noundef %13, ptr noundef %15)
  br label %23

16:                                               ; preds = %3
  %17 = load ptr, ptr %6, align 8, !tbaa !11
  %18 = call ptr @_(ptr noundef @.str.1)
  %19 = load ptr, ptr %4, align 8, !tbaa !4
  %20 = call ptr @absolute_path(ptr noundef %19)
  %21 = load i32, ptr %5, align 4, !tbaa !9
  %22 = call ptr @strerror(i32 noundef %21) #10
  call void (ptr, ptr, ...) @strbuf_addf(ptr noundef %17, ptr noundef %18, ptr noundef %20, ptr noundef %22)
  br label %23

23:                                               ; preds = %16, %9
  ret void
}

; Function Attrs: nounwind uwtable
define internal i32 @lock_file_timeout(ptr noundef %0, ptr noundef %1, i32 noundef %2, i64 noundef %3, i32 noundef %4) #0 {
  %6 = alloca i32, align 4
  %7 = alloca ptr, align 8
  %8 = alloca ptr, align 8
  %9 = alloca i32, align 4
  %10 = alloca i64, align 8
  %11 = alloca i32, align 4
  %12 = alloca i32, align 4
  %13 = alloca i32, align 4
  %14 = alloca i64, align 8
  %15 = alloca i32, align 4
  %16 = alloca i64, align 8
  %17 = alloca i64, align 8
  %18 = alloca i32, align 4
  store ptr %0, ptr %7, align 8, !tbaa !17
  store ptr %1, ptr %8, align 8, !tbaa !4
  store i32 %2, ptr %9, align 4, !tbaa !9
  store i64 %3, ptr %10, align 8, !tbaa !19
  store i32 %4, ptr %11, align 4, !tbaa !9
  call void @llvm.lifetime.start.p0(i64 4, ptr %12) #10
  store i32 1, ptr %12, align 4, !tbaa !9
  call void @llvm.lifetime.start.p0(i64 4, ptr %13) #10
  store i32 1, ptr %13, align 4, !tbaa !9
  call void @llvm.lifetime.start.p0(i64 8, ptr %14) #10
  store i64 0, ptr %14, align 8, !tbaa !19
  %19 = load i64, ptr %10, align 8, !tbaa !19
  %20 = icmp eq i64 %19, 0
  br i1 %20, label %21, label %27

21:                                               ; preds = %5
  %22 = load ptr, ptr %7, align 8, !tbaa !17
  %23 = load ptr, ptr %8, align 8, !tbaa !4
  %24 = load i32, ptr %9, align 4, !tbaa !9
  %25 = load i32, ptr %11, align 4, !tbaa !9
  %26 = call i32 @lock_file(ptr noundef %22, ptr noundef %23, i32 noundef %24, i32 noundef %25)
  store i32 %26, ptr %6, align 4
  store i32 1, ptr %15, align 4
  br label %94

27:                                               ; preds = %5
  %28 = load i32, ptr @lock_file_timeout.random_initialized, align 4, !tbaa !9
  %29 = icmp ne i32 %28, 0
  br i1 %29, label %32, label %30

30:                                               ; preds = %27
  %31 = call i32 @getpid() #10
  call void @srand(i32 noundef %31) #10
  store i32 1, ptr @lock_file_timeout.random_initialized, align 4, !tbaa !9
  br label %32

32:                                               ; preds = %30, %27
  %33 = load i64, ptr %10, align 8, !tbaa !19
  %34 = icmp sgt i64 %33, 0
  br i1 %34, label %35, label %37

35:                                               ; preds = %32
  %36 = load i64, ptr %10, align 8, !tbaa !19
  store i64 %36, ptr %14, align 8, !tbaa !19
  br label %37

37:                                               ; preds = %35, %32
  br label %38

38:                                               ; preds = %93, %37
  br label %39

39:                                               ; preds = %38
  call void @llvm.lifetime.start.p0(i64 8, ptr %16) #10
  call void @llvm.lifetime.start.p0(i64 8, ptr %17) #10
  call void @llvm.lifetime.start.p0(i64 4, ptr %18) #10
  %40 = load ptr, ptr %7, align 8, !tbaa !17
  %41 = load ptr, ptr %8, align 8, !tbaa !4
  %42 = load i32, ptr %9, align 4, !tbaa !9
  %43 = load i32, ptr %11, align 4, !tbaa !9
  %44 = call i32 @lock_file(ptr noundef %40, ptr noundef %41, i32 noundef %42, i32 noundef %43)
  store i32 %44, ptr %18, align 4, !tbaa !9
  %45 = load i32, ptr %18, align 4, !tbaa !9
  %46 = icmp sge i32 %45, 0
  br i1 %46, label %47, label %49

47:                                               ; preds = %39
  %48 = load i32, ptr %18, align 4, !tbaa !9
  store i32 %48, ptr %6, align 4
  store i32 1, ptr %15, align 4
  br label %91

49:                                               ; preds = %39
  %50 = call ptr @__errno_location() #12
  %51 = load i32, ptr %50, align 4, !tbaa !9
  %52 = icmp ne i32 %51, 17
  br i1 %52, label %53, label %54

53:                                               ; preds = %49
  store i32 -1, ptr %6, align 4
  store i32 1, ptr %15, align 4
  br label %91

54:                                               ; preds = %49
  %55 = load i64, ptr %10, align 8, !tbaa !19
  %56 = icmp sgt i64 %55, 0
  br i1 %56, label %57, label %61

57:                                               ; preds = %54
  %58 = load i64, ptr %14, align 8, !tbaa !19
  %59 = icmp sle i64 %58, 0
  br i1 %59, label %60, label %61

60:                                               ; preds = %57
  store i32 -1, ptr %6, align 4
  store i32 1, ptr %15, align 4
  br label %91

61:                                               ; preds = %57, %54
  br label %62

62:                                               ; preds = %61
  br label %63

63:                                               ; preds = %62
  %64 = load i32, ptr %13, align 4, !tbaa !9
  %65 = sext i32 %64 to i64
  %66 = mul nsw i64 %65, 1
  store i64 %66, ptr %16, align 8, !tbaa !19
  %67 = call i32 @rand() #10
  %68 = srem i32 %67, 500
  %69 = add nsw i32 750, %68
  %70 = sext i32 %69 to i64
  %71 = load i64, ptr %16, align 8, !tbaa !19
  %72 = mul nsw i64 %70, %71
  %73 = sdiv i64 %72, 1000
  store i64 %73, ptr %17, align 8, !tbaa !19
  %74 = load i64, ptr %17, align 8, !tbaa !19
  %75 = trunc i64 %74 to i32
  call void @sleep_millisec(i32 noundef %75)
  %76 = load i64, ptr %17, align 8, !tbaa !19
  %77 = load i64, ptr %14, align 8, !tbaa !19
  %78 = sub nsw i64 %77, %76
  store i64 %78, ptr %14, align 8, !tbaa !19
  %79 = load i32, ptr %12, align 4, !tbaa !9
  %80 = mul nsw i32 2, %79
  %81 = add nsw i32 %80, 1
  %82 = load i32, ptr %13, align 4, !tbaa !9
  %83 = add nsw i32 %82, %81
  store i32 %83, ptr %13, align 4, !tbaa !9
  %84 = load i32, ptr %13, align 4, !tbaa !9
  %85 = icmp sgt i32 %84, 1000
  br i1 %85, label %86, label %87

86:                                               ; preds = %63
  store i32 1000, ptr %13, align 4, !tbaa !9
  br label %90

87:                                               ; preds = %63
  %88 = load i32, ptr %12, align 4, !tbaa !9
  %89 = add nsw i32 %88, 1
  store i32 %89, ptr %12, align 4, !tbaa !9
  br label %90

90:                                               ; preds = %87, %86
  store i32 0, ptr %15, align 4
  br label %91

91:                                               ; preds = %90, %60, %53, %47
  call void @llvm.lifetime.end.p0(i64 4, ptr %18) #10
  call void @llvm.lifetime.end.p0(i64 8, ptr %17) #10
  call void @llvm.lifetime.end.p0(i64 8, ptr %16) #10
  %92 = load i32, ptr %15, align 4
  switch i32 %92, label %94 [
    i32 0, label %93
  ]

93:                                               ; preds = %91
  br label %38

94:                                               ; preds = %91, %21
  call void @llvm.lifetime.end.p0(i64 8, ptr %14) #10
  call void @llvm.lifetime.end.p0(i64 4, ptr %13) #10
  call void @llvm.lifetime.end.p0(i64 4, ptr %12) #10
  %95 = load i32, ptr %6, align 4
  ret i32 %95
}

; Function Attrs: nounwind uwtable
define dso_local i32 @hold_lock_file_for_update_timeout_mode(ptr noundef %0, ptr noundef %1, i32 noundef %2, i64 noundef %3, i32 noundef %4) #0 {
  %6 = alloca ptr, align 8
  %7 = alloca ptr, align 8
  %8 = alloca i32, align 4
  %9 = alloca i64, align 8
  %10 = alloca i32, align 4
  %11 = alloca i32, align 4
  %12 = alloca %struct.strbuf, align 8
  store ptr %0, ptr %6, align 8, !tbaa !17
  store ptr %1, ptr %7, align 8, !tbaa !4
  store i32 %2, ptr %8, align 4, !tbaa !9
  store i64 %3, ptr %9, align 8, !tbaa !19
  store i32 %4, ptr %10, align 4, !tbaa !9
  call void @llvm.lifetime.start.p0(i64 4, ptr %11) #10
  %13 = load ptr, ptr %6, align 8, !tbaa !17
  %14 = load ptr, ptr %7, align 8, !tbaa !4
  %15 = load i32, ptr %8, align 4, !tbaa !9
  %16 = load i64, ptr %9, align 8, !tbaa !19
  %17 = load i32, ptr %10, align 4, !tbaa !9
  %18 = call i32 @lock_file_timeout(ptr noundef %13, ptr noundef %14, i32 noundef %15, i64 noundef %16, i32 noundef %17)
  store i32 %18, ptr %11, align 4, !tbaa !9
  %19 = load i32, ptr %11, align 4, !tbaa !9
  %20 = icmp slt i32 %19, 0
  br i1 %20, label %21, label %42

21:                                               ; preds = %5
  %22 = load i32, ptr %8, align 4, !tbaa !9
  %23 = and i32 %22, 1
  %24 = icmp ne i32 %23, 0
  br i1 %24, label %25, label %29

25:                                               ; preds = %21
  %26 = load ptr, ptr %7, align 8, !tbaa !4
  %27 = call ptr @__errno_location() #12
  %28 = load i32, ptr %27, align 4, !tbaa !9
  call void @unable_to_lock_die(ptr noundef %26, i32 noundef %28) #11
  unreachable

29:                                               ; preds = %21
  %30 = load i32, ptr %8, align 4, !tbaa !9
  %31 = and i32 %30, 4
  %32 = icmp ne i32 %31, 0
  br i1 %32, label %33, label %41

33:                                               ; preds = %29
  call void @llvm.lifetime.start.p0(i64 24, ptr %12) #10
  call void @llvm.memcpy.p0.p0.i64(ptr align 8 %12, ptr align 8 @__const.hold_lock_file_for_update_timeout_mode.buf, i64 24, i1 false)
  %34 = load ptr, ptr %7, align 8, !tbaa !4
  %35 = call ptr @__errno_location() #12
  %36 = load i32, ptr %35, align 4, !tbaa !9
  call void @unable_to_lock_message(ptr noundef %34, i32 noundef %36, ptr noundef %12)
  %37 = getelementptr inbounds nuw %struct.strbuf, ptr %12, i32 0, i32 2
  %38 = load ptr, ptr %37, align 8, !tbaa !14
  %39 = call i32 (ptr, ...) @error(ptr noundef @.str.2, ptr noundef %38)
  %40 = call i32 @const_error()
  call void @strbuf_release(ptr noundef %12)
  call void @llvm.lifetime.end.p0(i64 24, ptr %12) #10
  br label %41

41:                                               ; preds = %33, %29
  br label %42

42:                                               ; preds = %41, %5
  %43 = load i32, ptr %11, align 4, !tbaa !9
  call void @llvm.lifetime.end.p0(i64 4, ptr %11) #10
  ret i32 %43
}