; Function Attrs: nounwind uwtable
define dso_local i32 @hold_lock_file_for_update_timeout_mode(ptr noundef captures(none) %0, ptr noundef %1, i32 noundef %2, i64 noundef %3, i32 noundef %4) local_unnamed_addr #0 {
  %6 = alloca %struct.strbuf, align 8
  %7 = icmp eq i64 %3, 0
  br i1 %7, label %lock_file_timeout.exit, label %8

8:                                                ; preds = %5
  %.b.i = load i1, ptr @lock_file_timeout.random_initialized, align 4
  br i1 %.b.i, label %11, label %9

9:                                                ; preds = %8
  %10 = tail call i32 @getpid() #11
  tail call void @srand(i32 noundef %10) #11
  store i1 true, ptr @lock_file_timeout.random_initialized, align 4
  br label %11

11:                                               ; preds = %9, %8
  %12 = icmp sgt i64 %3, 0
  %13 = tail call fastcc i32 @lock_file(ptr noundef %0, ptr noundef %1, i32 noundef %2, i32 noundef %4)
  %14 = icmp sgt i32 %13, -1
  br i1 %14, label %lock_file_timeout.exit.thread, label %.lr.ph.i

.lr.ph.i:                                         ; preds = %11
  %spec.select.i = tail call i64 @llvm.smax.i64(i64 %3, i64 0)
  %15 = tail call ptr @__errno_location() #13
  br label %16

16:                                               ; preds = %19, %.lr.ph.i
  %.02647.i = phi i32 [ 1, %.lr.ph.i ], [ %.228.i, %19 ]
  %.02946.i = phi i32 [ 1, %.lr.ph.i ], [ %.231.i, %19 ]
  %.13445.i = phi i64 [ %spec.select.i, %.lr.ph.i ], [ %28, %19 ]
  %17 = load i32, ptr %15, align 4, !tbaa !4
  %.not.i = icmp ne i32 %17, 17
  %18 = icmp slt i64 %.13445.i, 1
  %or.cond.i = select i1 %12, i1 %18, i1 false
  %or.cond39.i = select i1 %.not.i, i1 true, i1 %or.cond.i
  br i1 %or.cond39.i, label %lock_file_timeout.exit.thread13, label %19

19:                                               ; preds = %16
  %20 = sext i32 %.02946.i to i64
  %21 = tail call i32 @rand() #11
  %22 = srem i32 %21, 500
  %23 = add nsw i32 %22, 750
  %24 = zext nneg i32 %23 to i64
  %25 = mul nsw i64 %24, %20
  %26 = sdiv i64 %25, 1000
  %27 = trunc i64 %26 to i32
  tail call void @sleep_millisec(i32 noundef %27) #11
  %28 = sub nsw i64 %.13445.i, %26
  %29 = shl nuw nsw i32 %.02647.i, 1
  %30 = add nsw i32 %.02946.i, 1
  %31 = add i32 %30, %29
  %32 = icmp slt i32 %31, 1001
  %.231.i = tail call i32 @llvm.smin.i32(i32 %31, i32 1000)
  %33 = zext i1 %32 to i32
  %.228.i = add nuw nsw i32 %.02647.i, %33
  %34 = tail call fastcc i32 @lock_file(ptr noundef %0, ptr noundef %1, i32 noundef %2, i32 noundef %4)
  %35 = icmp sgt i32 %34, -1
  br i1 %35, label %lock_file_timeout.exit.thread, label %16

lock_file_timeout.exit:                           ; preds = %5
  %36 = tail call fastcc i32 @lock_file(ptr noundef %0, ptr noundef %1, i32 noundef %2, i32 noundef %4)
  %37 = icmp slt i32 %36, 0
  br i1 %37, label %lock_file_timeout.exit.thread13, label %lock_file_timeout.exit.thread

lock_file_timeout.exit.thread13:                  ; preds = %16, %lock_file_timeout.exit
  %.0.i15 = phi i32 [ %36, %lock_file_timeout.exit ], [ -1, %16 ]
  %38 = and i32 %2, 1
  %.not = icmp eq i32 %38, 0
  br i1 %.not, label %42, label %39

39:                                               ; preds = %lock_file_timeout.exit.thread13
  %40 = tail call ptr @__errno_location() #13
  %41 = load i32, ptr %40, align 4, !tbaa !4
  tail call void @unable_to_lock_die(ptr noundef %1, i32 noundef %41) #14
  unreachable

42:                                               ; preds = %lock_file_timeout.exit.thread13
  %43 = and i32 %2, 4
  %.not10 = icmp eq i32 %43, 0
  br i1 %.not10, label %lock_file_timeout.exit.thread, label %44

44:                                               ; preds = %42
  call void @llvm.lifetime.start.p0(i64 24, ptr nonnull %6) #11
  call void @llvm.memcpy.p0.p0.i64(ptr noundef nonnull align 8 dereferenceable(24) %6, ptr noundef nonnull align 8 dereferenceable(24) @__const.lock_file.filename, i64 24, i1 false)
  %45 = tail call ptr @__errno_location() #13
  %46 = load i32, ptr %45, align 4, !tbaa !4
  %47 = icmp eq i32 %46, 17
  %48 = load i32, ptr @git_gettext_enabled, align 4, !tbaa !4
  %.not4.i.i = icmp eq i32 %48, 0
  %.str..str.1.i = select i1 %47, ptr @.str, ptr @.str.1
  br i1 %.not4.i.i, label %unable_to_lock_message.exit, label %_.exit.sink.split.i

_.exit.sink.split.i:                              ; preds = %44
  %49 = tail call ptr @dcgettext(ptr noundef null, ptr noundef nonnull %.str..str.1.i, i32 noundef 5) #11
  br label %unable_to_lock_message.exit

unable_to_lock_message.exit:                      ; preds = %44, %_.exit.sink.split.i
  %.0.i7.sink.i = phi ptr [ %49, %_.exit.sink.split.i ], [ %.str..str.1.i, %44 ]
  %50 = tail call ptr @absolute_path(ptr noundef %1) #11
  %51 = tail call ptr @strerror(i32 noundef %46) #11
  call void (ptr, ptr, ...) @strbuf_addf(ptr noundef nonnull %6, ptr noundef %.0.i7.sink.i, ptr noundef %50, ptr noundef %51) #11
  %52 = getelementptr inbounds nuw i8, ptr %6, i64 16
  %53 = load ptr, ptr %52, align 8, !tbaa !8
  %54 = call i32 (ptr, ...) @error(ptr noundef nonnull @.str.2, ptr noundef %53) #11
  call void @strbuf_release(ptr noundef nonnull %6) #11
  call void @llvm.lifetime.end.p0(i64 24, ptr nonnull %6) #11
  br label %lock_file_timeout.exit.thread

lock_file_timeout.exit.thread:                    ; preds = %19, %11, %42, %unable_to_lock_message.exit, %lock_file_timeout.exit
  %.0.i12 = phi i32 [ %.0.i15, %42 ], [ %.0.i15, %unable_to_lock_message.exit ], [ %36, %lock_file_timeout.exit ], [ %13, %11 ], [ %34, %19 ]
  ret i32 %.0.i12
}